target datalayout = "e-m:e-p270:32:32-p271:32:32-p272:64:64-i64:64-i128:128-f80:128-n8:16:32:64-S128"
target triple = "x86_64-pc-linux-gnu"

; Function Attrs: mustprogress nounwind uwtable
define linkonce_odr dso_local void @_ZN3dap6ReaderD2Ev(ptr noundef nonnull align 8 dereferenceable(8) %0, ptr noundef %1) unnamed_addr #1 comdat align 2 {
  %3 = alloca ptr, align 8
  %4 = alloca ptr, align 8
  store ptr %0, ptr %3, align 8
  store ptr %1, ptr %4, align 8
  ret void
}

; Function Attrs: mustprogress nounwind uwtable
define linkonce_odr dso_local void @_ZN3dap6WriterD2Ev(ptr noundef nonnull align 8 dereferenceable(8) %0, ptr noundef %1) unnamed_addr #1 comdat align 2 {
  %3 = alloca ptr, align 8
  %4 = alloca ptr, align 8
  store ptr %0, ptr %3, align 8
  store ptr %1, ptr %4, align 8
  ret void
}

; Function Attrs: noreturn nounwind uwtable
define linkonce_odr hidden void @__clang_call_terminate(ptr noundef %0) #6 comdat {
  %2 = call ptr @__cxa_begin_catch(ptr %0) #15
  call void @_ZSt9terminatev() #17
  unreachable
}

; Function Attrs: mustprogress nounwind uwtable
define linkonce_odr dso_local void @_ZN3dap12ReaderWriterD2Ev(ptr noundef nonnull align 8 dereferenceable(16) %0, ptr noundef %1) unnamed_addr #1 comdat align 2 {
  %3 = alloca ptr, align 8
  %4 = alloca ptr, align 8
  store ptr %0, ptr %3, align 8
  store ptr %1, ptr %4, align 8
  %5 = load ptr, ptr %3, align 8
  %6 = load ptr, ptr %4, align 8
  %7 = getelementptr inbounds i8, ptr %5, i64 8
  %8 = getelementptr inbounds ptr, ptr %6, i64 3
  call void @_ZN3dap6WriterD2Ev(ptr noundef nonnull align 8 dereferenceable(8) %7, ptr noundef %8) #15
  %9 = getelementptr inbounds ptr, ptr %6, i64 1
  call void @_ZN3dap6ReaderD2Ev(ptr noundef nonnull align 8 dereferenceable(8) %5, ptr noundef %9) #15
  ret void
}

; Function Attrs: mustprogress nounwind uwtable
define linkonce_odr dso_local void @_ZN3dap8ClosableD2Ev(ptr noundef nonnull align 8 dereferenceable(8) %0) unnamed_addr #1 comdat align 2 {
  %2 = alloca ptr, align 8
  store ptr %0, ptr %2, align 8
  ret void
}

; Function Attrs: mustprogress nounwind uwtable
define internal void @_ZN12_GLOBAL__N_14FileD2Ev(ptr noundef nonnull align 8 dereferenceable(113) %0, ptr noundef %1) unnamed_addr #1 align 2 personality ptr @__gxx_personality_v0 {
  %3 = alloca ptr, align 8
  %4 = alloca ptr, align 8
  store ptr %0, ptr %3, align 8
  store ptr %1, ptr %4, align 8
  %5 = load ptr, ptr %3, align 8
  %6 = load ptr, ptr %4, align 8
  %7 = load ptr, ptr %6, align 8
  store ptr %7, ptr %5, align 8
  %8 = getelementptr inbounds ptr, ptr %6, i64 8
  %9 = load ptr, ptr %8, align 8
  %10 = load ptr, ptr %5, align 8
  %11 = getelementptr i8, ptr %10, i64 -48
  %12 = load i64, ptr %11, align 8
  %13 = getelementptr inbounds i8, ptr %5, i64 %12
  store ptr %9, ptr %13, align 8
  %14 = getelementptr inbounds ptr, ptr %6, i64 9
  %15 = load ptr, ptr %14, align 8
  %16 = getelementptr inbounds i8, ptr %5, i64 8
  store ptr %15, ptr %16, align 8
  %17 = load ptr, ptr %5, align 8
  %18 = getelementptr inbounds ptr, ptr %17, i64 3
  %19 = load ptr, ptr %18, align 8
  invoke void %19(ptr noundef nonnull align 8 dereferenceable(113) %5)
          to label %20 unwind label %22

20:                                               ; preds = %2
  %21 = getelementptr inbounds ptr, ptr %6, i64 1
  call void @_ZN3dap12ReaderWriterD2Ev(ptr noundef nonnull align 8 dereferenceable(16) %5, ptr noundef %21) #15
  ret void

22:                                               ; preds = %2
  %23 = landingpad { ptr, i32 }
          catch ptr null
  %24 = extractvalue { ptr, i32 } %23, 0
  call void @__clang_call_terminate(ptr %24) #17
  unreachable
}

; Function Attrs: mustprogress nounwind uwtable
define internal void @_ZN12_GLOBAL__N_14FileD1Ev(ptr noundef nonnull align 8 dereferenceable(113) %0) unnamed_addr #1 align 2 {
  %2 = alloca ptr, align 8
  store ptr %0, ptr %2, align 8
  %3 = load ptr, ptr %2, align 8
  call void @_ZN12_GLOBAL__N_14FileD2Ev(ptr noundef nonnull align 8 dereferenceable(113) %3, ptr noundef @_ZTTN12_GLOBAL__N_14FileE) #15
  call void @_ZN3dap8ClosableD2Ev(ptr noundef nonnull align 8 dereferenceable(8) %3) #15
  ret void
}

; Function Attrs: nounwind uwtable
define internal void @_ZThn8_N12_GLOBAL__N_14FileD1Ev(ptr noundef %0) unnamed_addr #11 align 2 {
  %2 = alloca ptr, align 8
  store ptr %0, ptr %2, align 8
  %3 = load ptr, ptr %2, align 8
  %4 = getelementptr inbounds i8, ptr %3, i64 -8
  tail call void @_ZN12_GLOBAL__N_14FileD1Ev(ptr noundef nonnull align 8 dereferenceable(113) %4) #15
  ret void
}